target datalayout = "e-m:e-p270:32:32-p271:32:32-p272:64:64-i64:64-i128:128-f80:128-n8:16:32:64-S128"
target triple = "x86_64-pc-linux-gnu"

%"class.Imf_3_4::Array2D" = type { i64, i64, ptr }
%"class.Imf_3_4::Array2D.3" = type { i64, i64, ptr }
%"class.Imf_3_4::Array2D.4" = type { i64, i64, ptr }

; Function Attrs: inlinehint mustprogress nounwind uwtable
define linkonce_odr dso_local noundef ptr @_ZN7Imf_3_47Array2DIPN9Imath_3_24halfEEixEl(ptr noundef nonnull align 8 dereferenceable(24) %0, i64 noundef %1) #8 comdat align 2 {
  %3 = alloca ptr, align 8
  %4 = alloca i64, align 8
  store ptr %0, ptr %3, align 8, !tbaa !17
  store i64 %1, ptr %4, align 8, !tbaa !38
  %5 = load ptr, ptr %3, align 8
  %6 = getelementptr inbounds nuw %"class.Imf_3_4::Array2D.4", ptr %5, i32 0, i32 2
  %7 = load ptr, ptr %6, align 8, !tbaa !55
  %8 = load i64, ptr %4, align 8, !tbaa !38
  %9 = getelementptr inbounds nuw %"class.Imf_3_4::Array2D.4", ptr %5, i32 0, i32 1
  %10 = load i64, ptr %9, align 8, !tbaa !58
  %11 = mul nsw i64 %8, %10
  %12 = getelementptr inbounds ptr, ptr %7, i64 %11
  ret ptr %12
}

; Function Attrs: inlinehint mustprogress nounwind uwtable
define linkonce_odr dso_local noundef ptr @_ZN7Imf_3_47Array2DIPfEixEl(ptr noundef nonnull align 8 dereferenceable(24) %0, i64 noundef %1) #8 comdat align 2 {
  %3 = alloca ptr, align 8
  %4 = alloca i64, align 8
  store ptr %0, ptr %3, align 8, !tbaa !15
  store i64 %1, ptr %4, align 8, !tbaa !38
  %5 = load ptr, ptr %3, align 8
  %6 = getelementptr inbounds nuw %"class.Imf_3_4::Array2D.3", ptr %5, i32 0, i32 2
  %7 = load ptr, ptr %6, align 8, !tbaa !49
  %8 = load i64, ptr %4, align 8, !tbaa !38
  %9 = getelementptr inbounds nuw %"class.Imf_3_4::Array2D.3", ptr %5, i32 0, i32 1
  %10 = load i64, ptr %9, align 8, !tbaa !52
  %11 = mul nsw i64 %8, %10
  %12 = getelementptr inbounds ptr, ptr %7, i64 %11
  ret ptr %12
}

; Function Attrs: inlinehint mustprogress nounwind uwtable
define linkonce_odr dso_local noundef ptr @_ZN7Imf_3_47Array2DIjEixEl(ptr noundef nonnull align 8 dereferenceable(24) %0, i64 noundef %1) #8 comdat align 2 {
  %3 = alloca ptr, align 8
  %4 = alloca i64, align 8
  store ptr %0, ptr %3, align 8, !tbaa !19
  store i64 %1, ptr %4, align 8, !tbaa !38
  %5 = load ptr, ptr %3, align 8
  %6 = getelementptr inbounds nuw %"class.Imf_3_4::Array2D", ptr %5, i32 0, i32 2
  %7 = load ptr, ptr %6, align 8, !tbaa !42
  %8 = load i64, ptr %4, align 8, !tbaa !38
  %9 = getelementptr inbounds nuw %"class.Imf_3_4::Array2D", ptr %5, i32 0, i32 1
  %10 = load i64, ptr %9, align 8, !tbaa !45
  %11 = mul nsw i64 %8, %10
  %12 = getelementptr inbounds i32, ptr %7, i64 %11
  ret ptr %12
}

; Function Attrs: mustprogress nounwind uwtable
define linkonce_odr dso_local noundef i64 @_ZNK7Imf_3_47Array2DIjE5widthEv(ptr noundef nonnull align 8 dereferenceable(24) %0) #5 comdat align 2 {
  %2 = alloca ptr, align 8
  store ptr %0, ptr %2, align 8, !tbaa !19
  %3 = load ptr, ptr %2, align 8
  %4 = getelementptr inbounds nuw %"class.Imf_3_4::Array2D", ptr %3, i32 0, i32 1
  %5 = load i64, ptr %4, align 8, !tbaa !45
  ret i64 %5
}

; Function Attrs: mustprogress nounwind uwtable
define linkonce_odr dso_local noundef i64 @_ZNK7Imf_3_47Array2DIjE6heightEv(ptr noundef nonnull align 8 dereferenceable(24) %0) #5 comdat align 2 {
  %2 = alloca ptr, align 8
  store ptr %0, ptr %2, align 8, !tbaa !19
  %3 = load ptr, ptr %2, align 8
  %4 = getelementptr inbounds nuw %"class.Imf_3_4::Array2D", ptr %3, i32 0, i32 0
  %5 = load i64, ptr %4, align 8, !tbaa !44
  ret i64 %5
}

; Function Attrs: mustprogress uwtable
define dso_local void @_Z20getSampleDataForTileiiiiRN7Imf_3_47Array2DIjEERNS0_IPfEERNS0_IPN9Imath_3_24halfEEE(i32 noundef %0, i32 noundef %1, i32 noundef %2, i32 noundef %3, ptr noundef nonnull align 8 dereferenceable(24) %4, ptr noundef nonnull align 8 dereferenceable(24) %5, ptr noundef nonnull align 8 dereferenceable(24) %6) #6 {
  %8 = alloca i32, align 4
  %9 = alloca i32, align 4
  %10 = alloca i32, align 4
  %11 = alloca i32, align 4
  %12 = alloca ptr, align 8
  %13 = alloca ptr, align 8
  %14 = alloca ptr, align 8
  %15 = alloca i32, align 4
  %16 = alloca i32, align 4
  %17 = alloca i32, align 4
  %18 = alloca i32, align 4
  %19 = alloca i32, align 4
  store i32 %0, ptr %8, align 4, !tbaa !26
  store i32 %1, ptr %9, align 4, !tbaa !26
  store i32 %2, ptr %10, align 4, !tbaa !26
  store i32 %3, ptr %11, align 4, !tbaa !26
  store ptr %4, ptr %12, align 8, !tbaa !19
  store ptr %5, ptr %13, align 8, !tbaa !15
  store ptr %6, ptr %14, align 8, !tbaa !17
  call void @llvm.lifetime.start.p0(i64 4, ptr %15) #3
  store i32 0, ptr %15, align 4, !tbaa !26
  br label %20

20:                                               ; preds = %123, %7
  %21 = load i32, ptr %15, align 4, !tbaa !26
  %22 = load i32, ptr %11, align 4, !tbaa !26
  %23 = icmp slt i32 %21, %22
  br i1 %23, label %25, label %24

24:                                               ; preds = %20
  store i32 2, ptr %16, align 4
  br label %126

25:                                               ; preds = %20
  call void @llvm.lifetime.start.p0(i64 4, ptr %17) #3
  %26 = load i32, ptr %9, align 4, !tbaa !26
  %27 = load i32, ptr %11, align 4, !tbaa !26
  %28 = mul nsw i32 %26, %27
  %29 = load i32, ptr %15, align 4, !tbaa !26
  %30 = add nsw i32 %28, %29
  store i32 %30, ptr %17, align 4, !tbaa !26
  %31 = load i32, ptr %17, align 4, !tbaa !26
  %32 = sext i32 %31 to i64
  %33 = load ptr, ptr %12, align 8, !tbaa !19
  %34 = call noundef i64 @_ZNK7Imf_3_47Array2DIjE6heightEv(ptr noundef nonnull align 8 dereferenceable(24) %33)
  %35 = icmp sge i64 %32, %34
  br i1 %35, label %36, label %37

36:                                               ; preds = %25
  store i32 2, ptr %16, align 4
  br label %120

37:                                               ; preds = %25
  call void @llvm.lifetime.start.p0(i64 4, ptr %18) #3
  store i32 0, ptr %18, align 4, !tbaa !26
  br label %38

38:                                               ; preds = %115, %37
  %39 = load i32, ptr %18, align 4, !tbaa !26
  %40 = load i32, ptr %10, align 4, !tbaa !26
  %41 = icmp slt i32 %39, %40
  br i1 %41, label %43, label %42

42:                                               ; preds = %38
  store i32 5, ptr %16, align 4
  br label %118

43:                                               ; preds = %38
  call void @llvm.lifetime.start.p0(i64 4, ptr %19) #3
  %44 = load i32, ptr %8, align 4, !tbaa !26
  %45 = load i32, ptr %10, align 4, !tbaa !26
  %46 = mul nsw i32 %44, %45
  %47 = load i32, ptr %18, align 4, !tbaa !26
  %48 = add nsw i32 %46, %47
  store i32 %48, ptr %19, align 4, !tbaa !26
  %49 = load i32, ptr %19, align 4, !tbaa !26
  %50 = sext i32 %49 to i64
  %51 = load ptr, ptr %12, align 8, !tbaa !19
  %52 = call noundef i64 @_ZNK7Imf_3_47Array2DIjE5widthEv(ptr noundef nonnull align 8 dereferenceable(24) %51)
  %53 = icmp sge i64 %50, %52
  br i1 %53, label %54, label %55

54:                                               ; preds = %43
  store i32 5, ptr %16, align 4
  br label %112

55:                                               ; preds = %43
  %56 = load i32, ptr %17, align 4, !tbaa !26
  %57 = load i32, ptr %19, align 4, !tbaa !26
  %58 = call noundef i32 @_Z19getPixelSampleCountii(i32 noundef %56, i32 noundef %57)
  %59 = load ptr, ptr %12, align 8, !tbaa !19
  %60 = load i32, ptr %17, align 4, !tbaa !26
  %61 = sext i32 %60 to i64
  %62 = call noundef ptr @_ZN7Imf_3_47Array2DIjEixEl(ptr noundef nonnull align 8 dereferenceable(24) %59, i64 noundef %61)
  %63 = load i32, ptr %19, align 4, !tbaa !26
  %64 = sext i32 %63 to i64
  %65 = getelementptr inbounds i32, ptr %62, i64 %64
  store i32 %58, ptr %65, align 4, !tbaa !26
  %66 = load ptr, ptr %12, align 8, !tbaa !19
  %67 = load i32, ptr %17, align 4, !tbaa !26
  %68 = sext i32 %67 to i64
  %69 = call noundef ptr @_ZN7Imf_3_47Array2DIjEixEl(ptr noundef nonnull align 8 dereferenceable(24) %66, i64 noundef %68)
  %70 = load i32, ptr %19, align 4, !tbaa !26
  %71 = sext i32 %70 to i64
  %72 = getelementptr inbounds i32, ptr %69, i64 %71
  %73 = load i32, ptr %72, align 4, !tbaa !26
  %74 = zext i32 %73 to i64
  %75 = call { i64, i1 } @llvm.umul.with.overflow.i64(i64 %74, i64 4)
  %76 = extractvalue { i64, i1 } %75, 1
  %77 = extractvalue { i64, i1 } %75, 0
  %78 = select i1 %76, i64 -1, i64 %77
  %79 = call noalias noundef nonnull ptr @_Znam(i64 noundef %78) #21
  %80 = load ptr, ptr %13, align 8, !tbaa !15
  %81 = load i32, ptr %17, align 4, !tbaa !26
  %82 = sext i32 %81 to i64
  %83 = call noundef ptr @_ZN7Imf_3_47Array2DIPfEixEl(ptr noundef nonnull align 8 dereferenceable(24) %80, i64 noundef %82)
  %84 = load i32, ptr %19, align 4, !tbaa !26
  %85 = sext i32 %84 to i64
  %86 = getelementptr inbounds ptr, ptr %83, i64 %85
  store ptr %79, ptr %86, align 8, !tbaa !29
  %87 = load ptr, ptr %12, align 8, !tbaa !19
  %88 = load i32, ptr %17, align 4, !tbaa !26
  %89 = sext i32 %88 to i64
  %90 = call noundef ptr @_ZN7Imf_3_47Array2DIjEixEl(ptr noundef nonnull align 8 dereferenceable(24) %87, i64 noundef %89)
  %91 = load i32, ptr %19, align 4, !tbaa !26
  %92 = sext i32 %91 to i64
  %93 = getelementptr inbounds i32, ptr %90, i64 %92
  %94 = load i32, ptr %93, align 4, !tbaa !26
  %95 = zext i32 %94 to i64
  %96 = call { i64, i1 } @llvm.umul.with.overflow.i64(i64 %95, i64 2)
  %97 = extractvalue { i64, i1 } %96, 1
  %98 = extractvalue { i64, i1 } %96, 0
  %99 = select i1 %97, i64 -1, i64 %98
  %100 = call noalias noundef nonnull ptr @_Znam(i64 noundef %99) #21
  %101 = load ptr, ptr %14, align 8, !tbaa !17
  %102 = load i32, ptr %17, align 4, !tbaa !26
  %103 = sext i32 %102 to i64
  %104 = call noundef ptr @_ZN7Imf_3_47Array2DIPN9Imath_3_24halfEEixEl(ptr noundef nonnull align 8 dereferenceable(24) %101, i64 noundef %103)
  %105 = load i32, ptr %19, align 4, !tbaa !26
  %106 = sext i32 %105 to i64
  %107 = getelementptr inbounds ptr, ptr %104, i64 %106
  store ptr %100, ptr %107, align 8, !tbaa !31
  %108 = load i32, ptr %17, align 4, !tbaa !26
  %109 = load i32, ptr %19, align 4, !tbaa !26
  %110 = load ptr, ptr %13, align 8, !tbaa !15
  %111 = load ptr, ptr %14, align 8, !tbaa !17
  call void @_Z18getPixelSampleDataiiRN7Imf_3_47Array2DIPfEERNS0_IPN9Imath_3_24halfEEE(i32 noundef %108, i32 noundef %109, ptr noundef nonnull align 8 dereferenceable(24) %110, ptr noundef nonnull align 8 dereferenceable(24) %111)
  store i32 0, ptr %16, align 4
  br label %112

112:                                              ; preds = %55, %54
  call void @llvm.lifetime.end.p0(i64 4, ptr %19) #3
  %113 = load i32, ptr %16, align 4
  switch i32 %113, label %118 [
    i32 0, label %114
  ]

114:                                              ; preds = %112
  br label %115

115:                                              ; preds = %114
  %116 = load i32, ptr %18, align 4, !tbaa !26
  %117 = add nsw i32 %116, 1
  store i32 %117, ptr %18, align 4, !tbaa !26
  br label %38, !llvm.loop !63

118:                                              ; preds = %112, %42
  call void @llvm.lifetime.end.p0(i64 4, ptr %18) #3
  br label %119

119:                                              ; preds = %118
  store i32 0, ptr %16, align 4
  br label %120

120:                                              ; preds = %119, %36
  call void @llvm.lifetime.end.p0(i64 4, ptr %17) #3
  %121 = load i32, ptr %16, align 4
  switch i32 %121, label %126 [
    i32 0, label %122
  ]

122:                                              ; preds = %120
  br label %123

123:                                              ; preds = %122
  %124 = load i32, ptr %15, align 4, !tbaa !26
  %125 = add nsw i32 %124, 1
  store i32 %125, ptr %15, align 4, !tbaa !26
  br label %20, !llvm.loop !64

126:                                              ; preds = %120, %24
  call void @llvm.lifetime.end.p0(i64 4, ptr %15) #3
  br label %127

127:                                              ; preds = %126
  ret void
}