; Function Attrs: mustprogress uwtable
define dso_local void @_Z20getSampleDataForTileiiiiRN7Imf_3_47Array2DIjEERNS0_IPfEERNS0_IPN9Imath_3_24halfEEE(i32 noundef %0, i32 noundef %1, i32 noundef %2, i32 noundef %3, ptr noundef nonnull readonly align 8 captures(none) dereferenceable(24) %4, ptr noundef nonnull align 8 dereferenceable(24) %5, ptr noundef nonnull align 8 dereferenceable(24) %6) local_unnamed_addr #5 {
  %8 = mul nsw i32 %3, %1
  %9 = icmp sgt i32 %3, 0
  br i1 %9, label %.lr.ph50, label %.critedge46

.lr.ph50:                                         ; preds = %7
  %10 = icmp sgt i32 %2, 0
  %11 = getelementptr inbounds nuw i8, ptr %4, i64 8
  %12 = getelementptr inbounds nuw i8, ptr %4, i64 16
  %13 = getelementptr inbounds nuw i8, ptr %5, i64 16
  %14 = getelementptr inbounds nuw i8, ptr %5, i64 8
  %15 = getelementptr inbounds nuw i8, ptr %6, i64 16
  %16 = getelementptr inbounds nuw i8, ptr %6, i64 8
  br i1 %10, label %.lr.ph50.split.us.preheader, label %.critedge46

.lr.ph50.split.us.preheader:                      ; preds = %.lr.ph50
  %17 = mul nsw i32 %2, %0
  %18 = sext i32 %17 to i64
  %19 = sext i32 %8 to i64
  %wide.trip.count59 = zext nneg i32 %3 to i64
  %wide.trip.count = zext nneg i32 %2 to i64
  br label %.lr.ph50.split.us

.lr.ph50.split.us:                                ; preds = %.lr.ph50.split.us.preheader, %.critedge.us
  %indvars.iv56 = phi i64 [ 0, %.lr.ph50.split.us.preheader ], [ %indvars.iv.next57, %.critedge.us ]
  %20 = add nsw i64 %indvars.iv56, %19
  %21 = load i64, ptr %4, align 8, !tbaa !18
  %.not.us = icmp sgt i64 %21, %20
  br i1 %.not.us, label %.preheader.us.preheader, label %.critedge46

.preheader.us.preheader:                          ; preds = %.lr.ph50.split.us
  %22 = trunc nsw i64 %20 to i32
  br label %.preheader.us

.preheader.us:                                    ; preds = %.preheader.us.preheader, %25
  %indvars.iv = phi i64 [ 0, %.preheader.us.preheader ], [ %indvars.iv.next, %25 ]
  %23 = add nsw i64 %indvars.iv, %18
  %24 = load i64, ptr %11, align 8, !tbaa !19
  %.not45.us = icmp sgt i64 %24, %23
  br i1 %.not45.us, label %25, label %.critedge.us

.critedge.us:                                     ; preds = %25, %.preheader.us
  %indvars.iv.next57 = add nuw nsw i64 %indvars.iv56, 1
  %exitcond60.not = icmp eq i64 %indvars.iv.next57, %wide.trip.count59
  br i1 %exitcond60.not, label %.critedge46, label %.lr.ph50.split.us, !llvm.loop !60

25:                                               ; preds = %.preheader.us
  %26 = trunc nsw i64 %23 to i32
  %27 = tail call noundef i32 @_Z19getPixelSampleCountii(i32 noundef %22, i32 noundef %26)
  %28 = load ptr, ptr %12, align 8, !tbaa !13
  %29 = load i64, ptr %11, align 8, !tbaa !19
  %30 = mul nsw i64 %29, %20
  %31 = getelementptr inbounds i32, ptr %28, i64 %30
  %32 = getelementptr inbounds i32, ptr %31, i64 %23
  store i32 %27, ptr %32, align 4, !tbaa !42
  %33 = zext i32 %27 to i64
  %34 = shl nuw nsw i64 %33, 2
  %35 = tail call noalias noundef nonnull ptr @_Znam(i64 noundef %34) #16
  %36 = load ptr, ptr %13, align 8, !tbaa !20
  %37 = load i64, ptr %14, align 8, !tbaa !25
  %38 = mul nsw i64 %37, %20
  %39 = getelementptr inbounds ptr, ptr %36, i64 %38
  %40 = getelementptr inbounds ptr, ptr %39, i64 %23
  store ptr %35, ptr %40, align 8, !tbaa !43
  %41 = load i32, ptr %32, align 4, !tbaa !42
  %42 = zext i32 %41 to i64
  %43 = shl nuw nsw i64 %42, 1
  %44 = tail call noalias noundef nonnull ptr @_Znam(i64 noundef %43) #16
  %45 = load ptr, ptr %15, align 8, !tbaa !26
  %46 = load i64, ptr %16, align 8, !tbaa !30
  %47 = mul nsw i64 %46, %20
  %48 = getelementptr inbounds ptr, ptr %45, i64 %47
  %49 = getelementptr inbounds ptr, ptr %48, i64 %23
  store ptr %44, ptr %49, align 8, !tbaa !45
  tail call void @_Z18getPixelSampleDataiiRN7Imf_3_47Array2DIPfEERNS0_IPN9Imath_3_24halfEEE(i32 noundef %22, i32 noundef %26, ptr noundef nonnull align 8 dereferenceable(24) %5, ptr noundef nonnull align 8 dereferenceable(24) %6)
  %indvars.iv.next = add nuw nsw i64 %indvars.iv, 1
  %exitcond.not = icmp eq i64 %indvars.iv.next, %wide.trip.count
  br i1 %exitcond.not, label %.critedge.us, label %.preheader.us, !llvm.loop !61

.critedge46:                                      ; preds = %.critedge.us, %.lr.ph50.split.us, %.lr.ph50, %7
  ret void
}